target datalayout = "e-m:e-p270:32:32-p271:32:32-p272:64:64-i64:64-i128:128-f80:128-n8:16:32:64-S128"
target triple = "x86_64-pc-linux-gnu"

%struct.FT_ListRec_ = type { ptr, ptr }
%struct.FT_CharMapRec_ = type { ptr, i32, i16, i16 }
%struct.FT_FaceRec_ = type { i64, i64, i64, i64, i64, ptr, ptr, i32, ptr, i32, ptr, %struct.FT_Generic_, %struct.FT_BBox_, i16, i16, i16, i16, i16, i16, i16, i16, ptr, ptr, ptr, ptr, ptr, ptr, %struct.FT_ListRec_, %struct.FT_Generic_, ptr, ptr }
%struct.FT_BBox_ = type { i64, i64, i64, i64 }
%struct.FT_Generic_ = type { ptr, ptr }
%struct.FT_StreamRec_ = type { ptr, i64, i64, %union.FT_StreamDesc_, %union.FT_StreamDesc_, ptr, ptr, ptr, ptr, ptr }
%union.FT_StreamDesc_ = type { i64 }
%struct.AFM_FontInfoRec_ = type { i8, %struct.FT_BBox_, i64, i64, ptr, i32, ptr, i32 }
%struct.AFM_KernPairRec_ = type { i32, i32, i32, i32 }

; Function Attrs: nounwind uwtable
define internal i32 @T1_Read_PFM(ptr noundef %0, ptr noundef %1, ptr noundef %2) #0 {
  %4 = alloca ptr, align 8
  %5 = alloca ptr, align 8
  %6 = alloca ptr, align 8
  %7 = alloca i32, align 4
  %8 = alloca ptr, align 8
  %9 = alloca ptr, align 8
  %10 = alloca ptr, align 8
  %11 = alloca ptr, align 8
  %12 = alloca ptr, align 8
  %13 = alloca i32, align 4
  %14 = alloca ptr, align 8
  %15 = alloca ptr, align 8
  %16 = alloca i32, align 4
  store ptr %0, ptr %4, align 8
  store ptr %1, ptr %5, align 8
  store ptr %2, ptr %6, align 8
  store i32 0, ptr %7, align 4
  %17 = load ptr, ptr %5, align 8
  %18 = getelementptr inbounds %struct.FT_StreamRec_, ptr %17, i32 0, i32 7
  %19 = load ptr, ptr %18, align 8
  store ptr %19, ptr %8, align 8
  %20 = load ptr, ptr %5, align 8
  %21 = getelementptr inbounds %struct.FT_StreamRec_, ptr %20, i32 0, i32 8
  %22 = load ptr, ptr %21, align 8
  store ptr %22, ptr %9, align 8
  %23 = load ptr, ptr %5, align 8
  %24 = getelementptr inbounds %struct.FT_StreamRec_, ptr %23, i32 0, i32 9
  %25 = load ptr, ptr %24, align 8
  store ptr %25, ptr %10, align 8
  %26 = load ptr, ptr %9, align 8
  %27 = getelementptr inbounds i8, ptr %26, i64 99
  store ptr %27, ptr %11, align 8
  %28 = load ptr, ptr %11, align 8
  %29 = getelementptr inbounds i8, ptr %28, i64 2
  %30 = load ptr, ptr %10, align 8
  %31 = icmp ugt ptr %29, %30
  br i1 %31, label %32, label %33

32:                                               ; preds = %3
  store i32 2, ptr %7, align 4
  br label %263

33:                                               ; preds = %3
  %34 = load ptr, ptr %11, align 8
  %35 = getelementptr inbounds i8, ptr %34, i64 1
  %36 = load i8, ptr %35, align 1
  %37 = zext i8 %36 to i16
  %38 = zext i16 %37 to i32
  %39 = shl i32 %38, 8
  %40 = load ptr, ptr %11, align 8
  %41 = getelementptr inbounds i8, ptr %40, i64 0
  %42 = load i8, ptr %41, align 1
  %43 = zext i8 %42 to i16
  %44 = zext i16 %43 to i32
  %45 = shl i32 %44, 0
  %46 = or i32 %39, %45
  %47 = trunc i32 %46 to i16
  %48 = zext i16 %47 to i32
  store i32 %48, ptr %13, align 4
  %49 = load i32, ptr %13, align 4
  %50 = add nsw i32 18, %49
  %51 = load ptr, ptr %11, align 8
  %52 = sext i32 %50 to i64
  %53 = getelementptr inbounds i8, ptr %51, i64 %52
  store ptr %53, ptr %11, align 8
  %54 = load ptr, ptr %11, align 8
  %55 = getelementptr inbounds i8, ptr %54, i64 18
  %56 = load ptr, ptr %10, align 8
  %57 = icmp ugt ptr %55, %56
  br i1 %57, label %75, label %58

58:                                               ; preds = %33
  %59 = load ptr, ptr %11, align 8
  %60 = getelementptr inbounds i8, ptr %59, i64 1
  %61 = load i8, ptr %60, align 1
  %62 = zext i8 %61 to i16
  %63 = zext i16 %62 to i32
  %64 = shl i32 %63, 8
  %65 = load ptr, ptr %11, align 8
  %66 = getelementptr inbounds i8, ptr %65, i64 0
  %67 = load i8, ptr %66, align 1
  %68 = zext i8 %67 to i16
  %69 = zext i16 %68 to i32
  %70 = shl i32 %69, 0
  %71 = or i32 %64, %70
  %72 = trunc i32 %71 to i16
  %73 = zext i16 %72 to i32
  %74 = icmp slt i32 %73, 18
  br i1 %74, label %75, label %76

75:                                               ; preds = %58, %33
  br label %263

76:                                               ; preds = %58
  %77 = load ptr, ptr %11, align 8
  %78 = getelementptr inbounds i8, ptr %77, i64 14
  store ptr %78, ptr %11, align 8
  %79 = load ptr, ptr %9, align 8
  %80 = load ptr, ptr %11, align 8
  %81 = getelementptr inbounds i8, ptr %80, i64 3
  %82 = load i8, ptr %81, align 1
  %83 = zext i8 %82 to i32
  %84 = shl i32 %83, 24
  %85 = load ptr, ptr %11, align 8
  %86 = getelementptr inbounds i8, ptr %85, i64 2
  %87 = load i8, ptr %86, align 1
  %88 = zext i8 %87 to i32
  %89 = shl i32 %88, 16
  %90 = or i32 %84, %89
  %91 = load ptr, ptr %11, align 8
  %92 = getelementptr inbounds i8, ptr %91, i64 1
  %93 = load i8, ptr %92, align 1
  %94 = zext i8 %93 to i32
  %95 = shl i32 %94, 8
  %96 = or i32 %90, %95
  %97 = load ptr, ptr %11, align 8
  %98 = getelementptr inbounds i8, ptr %97, i64 0
  %99 = load i8, ptr %98, align 1
  %100 = zext i8 %99 to i32
  %101 = shl i32 %100, 0
  %102 = or i32 %96, %101
  %103 = zext i32 %102 to i64
  %104 = getelementptr inbounds i8, ptr %79, i64 %103
  store ptr %104, ptr %11, align 8
  %105 = load ptr, ptr %11, align 8
  %106 = load ptr, ptr %9, align 8
  %107 = icmp eq ptr %105, %106
  br i1 %107, label %108, label %109

108:                                              ; preds = %76
  br label %263

109:                                              ; preds = %76
  %110 = load ptr, ptr %11, align 8
  %111 = getelementptr inbounds i8, ptr %110, i64 2
  %112 = load ptr, ptr %10, align 8
  %113 = icmp ugt ptr %111, %112
  br i1 %113, label %114, label %115

114:                                              ; preds = %109
  store i32 2, ptr %7, align 4
  br label %263

115:                                              ; preds = %109
  %116 = load ptr, ptr %11, align 8
  %117 = getelementptr inbounds i8, ptr %116, i64 1
  %118 = load i8, ptr %117, align 1
  %119 = zext i8 %118 to i16
  %120 = zext i16 %119 to i32
  %121 = shl i32 %120, 8
  %122 = load ptr, ptr %11, align 8
  %123 = getelementptr inbounds i8, ptr %122, i64 0
  %124 = load i8, ptr %123, align 1
  %125 = zext i8 %124 to i16
  %126 = zext i16 %125 to i32
  %127 = shl i32 %126, 0
  %128 = or i32 %121, %127
  %129 = trunc i32 %128 to i16
  %130 = zext i16 %129 to i32
  %131 = load ptr, ptr %6, align 8
  %132 = getelementptr inbounds %struct.AFM_FontInfoRec_, ptr %131, i32 0, i32 7
  store i32 %130, ptr %132, align 8
  %133 = load ptr, ptr %11, align 8
  %134 = getelementptr inbounds i8, ptr %133, i64 2
  store ptr %134, ptr %11, align 8
  %135 = load ptr, ptr %11, align 8
  %136 = load ptr, ptr %6, align 8
  %137 = getelementptr inbounds %struct.AFM_FontInfoRec_, ptr %136, i32 0, i32 7
  %138 = load i32, ptr %137, align 8
  %139 = mul i32 4, %138
  %140 = zext i32 %139 to i64
  %141 = getelementptr inbounds i8, ptr %135, i64 %140
  %142 = load ptr, ptr %10, align 8
  %143 = icmp ugt ptr %141, %142
  br i1 %143, label %144, label %145

144:                                              ; preds = %115
  store i32 2, ptr %7, align 4
  br label %263

145:                                              ; preds = %115
  %146 = load ptr, ptr %6, align 8
  %147 = getelementptr inbounds %struct.AFM_FontInfoRec_, ptr %146, i32 0, i32 7
  %148 = load i32, ptr %147, align 8
  %149 = icmp eq i32 %148, 0
  br i1 %149, label %150, label %151

150:                                              ; preds = %145
  br label %263

151:                                              ; preds = %145
  %152 = load ptr, ptr %8, align 8
  %153 = load ptr, ptr %6, align 8
  %154 = getelementptr inbounds %struct.AFM_FontInfoRec_, ptr %153, i32 0, i32 7
  %155 = load i32, ptr %154, align 8
  %156 = zext i32 %155 to i64
  %157 = call ptr @ft_mem_qrealloc(ptr noundef %152, i64 noundef 16, i64 noundef 0, i64 noundef %156, ptr noundef null, ptr noundef %7)
  %158 = load ptr, ptr %6, align 8
  %159 = getelementptr inbounds %struct.AFM_FontInfoRec_, ptr %158, i32 0, i32 6
  store ptr %157, ptr %159, align 8
  %160 = load i32, ptr %7, align 4
  %161 = icmp ne i32 %160, 0
  br i1 %161, label %162, label %163

162:                                              ; preds = %151
  br label %263

163:                                              ; preds = %151
  %164 = load ptr, ptr %6, align 8
  %165 = getelementptr inbounds %struct.AFM_FontInfoRec_, ptr %164, i32 0, i32 6
  %166 = load ptr, ptr %165, align 8
  store ptr %166, ptr %12, align 8
  %167 = load ptr, ptr %11, align 8
  %168 = load ptr, ptr %6, align 8
  %169 = getelementptr inbounds %struct.AFM_FontInfoRec_, ptr %168, i32 0, i32 7
  %170 = load i32, ptr %169, align 8
  %171 = mul i32 4, %170
  %172 = zext i32 %171 to i64
  %173 = getelementptr inbounds i8, ptr %167, i64 %172
  store ptr %173, ptr %10, align 8
  %174 = load ptr, ptr %4, align 8
  %175 = getelementptr inbounds %struct.FT_FaceRec_, ptr %174, i32 0, i32 23
  %176 = load ptr, ptr %175, align 8
  store ptr %176, ptr %14, align 8
  store i32 0, ptr %16, align 4
  br label %177

177:                                              ; preds = %201, %163
  %178 = load i32, ptr %16, align 4
  %179 = load ptr, ptr %4, align 8
  %180 = getelementptr inbounds %struct.FT_FaceRec_, ptr %179, i32 0, i32 9
  %181 = load i32, ptr %180, align 8
  %182 = icmp slt i32 %178, %181
  br i1 %182, label %183, label %204

183:                                              ; preds = %177
  %184 = load ptr, ptr %4, align 8
  %185 = getelementptr inbounds %struct.FT_FaceRec_, ptr %184, i32 0, i32 10
  %186 = load ptr, ptr %185, align 8
  %187 = load i32, ptr %16, align 4
  %188 = sext i32 %187 to i64
  %189 = getelementptr inbounds ptr, ptr %186, i64 %188
  %190 = load ptr, ptr %189, align 8
  store ptr %190, ptr %15, align 8
  %191 = load ptr, ptr %15, align 8
  %192 = getelementptr inbounds %struct.FT_CharMapRec_, ptr %191, i32 0, i32 2
  %193 = load i16, ptr %192, align 4
  %194 = zext i16 %193 to i32
  %195 = icmp eq i32 %194, 7
  br i1 %195, label %196, label %200

196:                                              ; preds = %183
  %197 = load ptr, ptr %15, align 8
  %198 = load ptr, ptr %4, align 8
  %199 = getelementptr inbounds %struct.FT_FaceRec_, ptr %198, i32 0, i32 23
  store ptr %197, ptr %199, align 8
  br label %204

200:                                              ; preds = %183
  br label %201

201:                                              ; preds = %200
  %202 = load i32, ptr %16, align 4
  %203 = add nsw i32 %202, 1
  store i32 %203, ptr %16, align 4
  br label %177, !llvm.loop !35

204:                                              ; preds = %196, %177
  br label %205

205:                                              ; preds = %249, %204
  %206 = load ptr, ptr %11, align 8
  %207 = load ptr, ptr %10, align 8
  %208 = icmp ult ptr %206, %207
  br i1 %208, label %209, label %252

209:                                              ; preds = %205
  %210 = load ptr, ptr %4, align 8
  %211 = load ptr, ptr %11, align 8
  %212 = getelementptr inbounds i8, ptr %211, i64 0
  %213 = load i8, ptr %212, align 1
  %214 = zext i8 %213 to i64
  %215 = call i32 @FT_Get_Char_Index(ptr noundef %210, i64 noundef %214)
  %216 = load ptr, ptr %12, align 8
  %217 = getelementptr inbounds %struct.AFM_KernPairRec_, ptr %216, i32 0, i32 0
  store i32 %215, ptr %217, align 4
  %218 = load ptr, ptr %4, align 8
  %219 = load ptr, ptr %11, align 8
  %220 = getelementptr inbounds i8, ptr %219, i64 1
  %221 = load i8, ptr %220, align 1
  %222 = zext i8 %221 to i64
  %223 = call i32 @FT_Get_Char_Index(ptr noundef %218, i64 noundef %222)
  %224 = load ptr, ptr %12, align 8
  %225 = getelementptr inbounds %struct.AFM_KernPairRec_, ptr %224, i32 0, i32 1
  store i32 %223, ptr %225, align 4
  %226 = load ptr, ptr %11, align 8
  %227 = getelementptr inbounds i8, ptr %226, i64 2
  %228 = getelementptr inbounds i8, ptr %227, i64 1
  %229 = load i8, ptr %228, align 1
  %230 = zext i8 %229 to i16
  %231 = zext i16 %230 to i32
  %232 = shl i32 %231, 8
  %233 = load ptr, ptr %11, align 8
  %234 = getelementptr inbounds i8, ptr %233, i64 2
  %235 = getelementptr inbounds i8, ptr %234, i64 0
  %236 = load i8, ptr %235, align 1
  %237 = zext i8 %236 to i16
  %238 = zext i16 %237 to i32
  %239 = shl i32 %238, 0
  %240 = or i32 %232, %239
  %241 = trunc i32 %240 to i16
  %242 = sext i16 %241 to i32
  %243 = load ptr, ptr %12, align 8
  %244 = getelementptr inbounds %struct.AFM_KernPairRec_, ptr %243, i32 0, i32 2
  store i32 %242, ptr %244, align 4
  %245 = load ptr, ptr %12, align 8
  %246 = getelementptr inbounds %struct.AFM_KernPairRec_, ptr %245, i32 0, i32 3
  store i32 0, ptr %246, align 4
  %247 = load ptr, ptr %12, align 8
  %248 = getelementptr inbounds %struct.AFM_KernPairRec_, ptr %247, i32 1
  store ptr %248, ptr %12, align 8
  br label %249

249:                                              ; preds = %209
  %250 = load ptr, ptr %11, align 8
  %251 = getelementptr inbounds i8, ptr %250, i64 4
  store ptr %251, ptr %11, align 8
  br label %205, !llvm.loop !36

252:                                              ; preds = %205
  %253 = load ptr, ptr %14, align 8
  %254 = load ptr, ptr %4, align 8
  %255 = getelementptr inbounds %struct.FT_FaceRec_, ptr %254, i32 0, i32 23
  store ptr %253, ptr %255, align 8
  %256 = load ptr, ptr %6, align 8
  %257 = getelementptr inbounds %struct.AFM_FontInfoRec_, ptr %256, i32 0, i32 6
  %258 = load ptr, ptr %257, align 8
  %259 = load ptr, ptr %6, align 8
  %260 = getelementptr inbounds %struct.AFM_FontInfoRec_, ptr %259, i32 0, i32 7
  %261 = load i32, ptr %260, align 8
  %262 = zext i32 %261 to i64
  call void @qsort(ptr noundef %258, i64 noundef %262, i64 noundef 16, ptr noundef @compare_kern_pairs)
  br label %263

263:                                              ; preds = %252, %162, %150, %144, %114, %108, %75, %32
  %264 = load i32, ptr %7, align 4
  %265 = icmp ne i32 %264, 0
  br i1 %265, label %266, label %277

266:                                              ; preds = %263
  br label %267

267:                                              ; preds = %266
  %268 = load ptr, ptr %8, align 8
  %269 = load ptr, ptr %6, align 8
  %270 = getelementptr inbounds %struct.AFM_FontInfoRec_, ptr %269, i32 0, i32 6
  %271 = load ptr, ptr %270, align 8
  call void @ft_mem_free(ptr noundef %268, ptr noundef %271)
  %272 = load ptr, ptr %6, align 8
  %273 = getelementptr inbounds %struct.AFM_FontInfoRec_, ptr %272, i32 0, i32 6
  store ptr null, ptr %273, align 8
  br label %274

274:                                              ; preds = %267
  %275 = load ptr, ptr %6, align 8
  %276 = getelementptr inbounds %struct.AFM_FontInfoRec_, ptr %275, i32 0, i32 7
  store i32 0, ptr %276, align 8
  br label %277

277:                                              ; preds = %274, %263
  %278 = load i32, ptr %7, align 4
  ret i32 %278
}