; Function Attrs: nounwind uwtable
define internal fastcc i32 @T1_Read_PFM(ptr noundef %0, ptr nocapture noundef readonly %1, ptr nocapture noundef %2) unnamed_addr #2 {
  %4 = alloca i32, align 4
  store i32 0, ptr %4, align 4
  %5 = getelementptr inbounds i8, ptr %1, i64 56
  %6 = load ptr, ptr %5, align 8
  %7 = getelementptr inbounds i8, ptr %1, i64 64
  %8 = load ptr, ptr %7, align 8
  %9 = getelementptr inbounds i8, ptr %1, i64 72
  %10 = load ptr, ptr %9, align 8
  %11 = getelementptr inbounds i8, ptr %8, i64 101
  %12 = icmp ugt ptr %11, %10
  br i1 %12, label %13, label %14

13:                                               ; preds = %3
  store i32 2, ptr %4, align 4
  br label %.thread

14:                                               ; preds = %3
  %15 = getelementptr inbounds i8, ptr %8, i64 99
  %16 = load i16, ptr %15, align 1
  %17 = zext i16 %16 to i64
  %18 = getelementptr inbounds i8, ptr %15, i64 %17
  %19 = getelementptr inbounds i8, ptr %18, i64 36
  %20 = icmp ugt ptr %19, %10
  br i1 %20, label %.thread85, label %21

21:                                               ; preds = %14
  %22 = getelementptr inbounds i8, ptr %18, i64 18
  %23 = load i16, ptr %22, align 1
  %24 = icmp ult i16 %23, 18
  br i1 %24, label %.thread85, label %25

25:                                               ; preds = %21
  %26 = getelementptr inbounds i8, ptr %18, i64 32
  %27 = getelementptr i8, ptr %18, i64 34
  %28 = load i16, ptr %27, align 1
  %29 = zext i16 %28 to i64
  %30 = shl nuw nsw i64 %29, 16
  %31 = getelementptr inbounds i8, ptr %18, i64 33
  %32 = load i8, ptr %31, align 1
  %33 = zext i8 %32 to i64
  %34 = shl nuw nsw i64 %33, 8
  %35 = or disjoint i64 %34, %30
  %36 = load i8, ptr %26, align 1
  %37 = zext i8 %36 to i64
  %38 = or disjoint i64 %35, %37
  %39 = getelementptr inbounds i8, ptr %8, i64 %38
  %40 = icmp eq i64 %38, 0
  br i1 %40, label %.thread85, label %41

41:                                               ; preds = %25
  %.ptr = getelementptr inbounds i8, ptr %39, i64 2
  %42 = icmp ugt ptr %.ptr, %10
  br i1 %42, label %43, label %44

43:                                               ; preds = %41
  store i32 2, ptr %4, align 4
  br label %.thread

44:                                               ; preds = %41
  %45 = getelementptr inbounds i8, ptr %39, i64 1
  %46 = load i8, ptr %45, align 1
  %47 = zext i8 %46 to i32
  %48 = shl nuw nsw i32 %47, 8
  %49 = load i8, ptr %39, align 1
  %50 = zext i8 %49 to i32
  %51 = or disjoint i32 %48, %50
  %52 = getelementptr inbounds i8, ptr %2, i64 80
  store i32 %51, ptr %52, align 8
  %53 = shl nuw nsw i32 %51, 2
  %54 = zext nneg i32 %53 to i64
  %55 = getelementptr inbounds i8, ptr %.ptr, i64 %54
  %56 = icmp ugt ptr %55, %10
  br i1 %56, label %57, label %58

57:                                               ; preds = %44
  store i32 2, ptr %4, align 4
  br label %.thread

58:                                               ; preds = %44
  %59 = icmp eq i32 %51, 0
  br i1 %59, label %.thread85, label %60

60:                                               ; preds = %58
  %61 = zext nneg i32 %51 to i64
  %62 = call ptr @ft_mem_qrealloc(ptr noundef %6, i64 noundef 16, i64 noundef 0, i64 noundef %61, ptr noundef null, ptr noundef nonnull %4) #16
  %63 = getelementptr inbounds i8, ptr %2, i64 72
  store ptr %62, ptr %63, align 8
  %64 = load i32, ptr %4, align 4
  %.not = icmp eq i32 %64, 0
  br i1 %.not, label %65, label %.thread

65:                                               ; preds = %60
  %66 = load i32, ptr %52, align 8
  %67 = shl i32 %66, 2
  %68 = or disjoint i32 %67, 2
  %.add = zext i32 %68 to i64
  %.ptr80 = getelementptr inbounds i8, ptr %39, i64 %.add
  %69 = getelementptr inbounds i8, ptr %0, i64 168
  %70 = load ptr, ptr %69, align 8
  %71 = getelementptr inbounds i8, ptr %0, i64 72
  %72 = load i32, ptr %71, align 8
  %73 = icmp sgt i32 %72, 0
  br i1 %73, label %.lr.ph, label %.loopexit

.lr.ph:                                           ; preds = %65
  %74 = getelementptr inbounds i8, ptr %0, i64 80
  %75 = load ptr, ptr %74, align 8
  %wide.trip.count = zext nneg i32 %72 to i64
  br label %77

76:                                               ; preds = %77
  %indvars.iv.next = add nuw nsw i64 %indvars.iv, 1
  %exitcond.not = icmp eq i64 %indvars.iv.next, %wide.trip.count
  br i1 %exitcond.not, label %.loopexit, label %77, !llvm.loop !37

77:                                               ; preds = %.lr.ph, %76
  %indvars.iv = phi i64 [ 0, %.lr.ph ], [ %indvars.iv.next, %76 ]
  %78 = getelementptr inbounds ptr, ptr %75, i64 %indvars.iv
  %79 = load ptr, ptr %78, align 8
  %80 = getelementptr inbounds i8, ptr %79, i64 12
  %81 = load i16, ptr %80, align 4
  %82 = icmp eq i16 %81, 7
  br i1 %82, label %83, label %76

83:                                               ; preds = %77
  store ptr %79, ptr %69, align 8
  br label %.loopexit

.loopexit:                                        ; preds = %76, %65, %83
  %.not81 = icmp eq i32 %67, 0
  br i1 %.not81, label %.loopexit87, label %.lr.ph79

.lr.ph79:                                         ; preds = %.loopexit, %.lr.ph79
  %.06878 = phi ptr [ %98, %.lr.ph79 ], [ %.ptr, %.loopexit ]
  %.06977 = phi ptr [ %97, %.lr.ph79 ], [ %62, %.loopexit ]
  %84 = load i8, ptr %.06878, align 1
  %85 = zext i8 %84 to i64
  %86 = call i32 @FT_Get_Char_Index(ptr noundef %0, i64 noundef %85) #16
  store i32 %86, ptr %.06977, align 4
  %87 = getelementptr inbounds i8, ptr %.06878, i64 1
  %88 = load i8, ptr %87, align 1
  %89 = zext i8 %88 to i64
  %90 = call i32 @FT_Get_Char_Index(ptr noundef %0, i64 noundef %89) #16
  %91 = getelementptr inbounds i8, ptr %.06977, i64 4
  store i32 %90, ptr %91, align 4
  %92 = getelementptr inbounds i8, ptr %.06878, i64 2
  %93 = load i16, ptr %92, align 1
  %94 = sext i16 %93 to i32
  %95 = getelementptr inbounds i8, ptr %.06977, i64 8
  store i32 %94, ptr %95, align 4
  %96 = getelementptr inbounds i8, ptr %.06977, i64 12
  store i32 0, ptr %96, align 4
  %97 = getelementptr inbounds i8, ptr %.06977, i64 16
  %98 = getelementptr inbounds i8, ptr %.06878, i64 4
  %99 = icmp ult ptr %98, %.ptr80
  br i1 %99, label %.lr.ph79, label %.loopexit87, !llvm.loop !38

.loopexit87:                                      ; preds = %.lr.ph79, %.loopexit
  store ptr %70, ptr %69, align 8
  %100 = load ptr, ptr %63, align 8
  %101 = load i32, ptr %52, align 8
  %102 = zext i32 %101 to i64
  call void @qsort(ptr noundef %100, i64 noundef %102, i64 noundef 16, ptr noundef nonnull @compare_kern_pairs) #16
  %.pr.pre = load i32, ptr %4, align 4
  %103 = icmp eq i32 %.pr.pre, 0
  br i1 %103, label %.thread85, label %.thread

.thread:                                          ; preds = %13, %43, %57, %60, %.loopexit87
  %104 = getelementptr inbounds i8, ptr %2, i64 72
  %105 = load ptr, ptr %104, align 8
  call void @ft_mem_free(ptr noundef %6, ptr noundef %105) #16
  store ptr null, ptr %104, align 8
  %106 = getelementptr inbounds i8, ptr %2, i64 80
  store i32 0, ptr %106, align 8
  %.pre = load i32, ptr %4, align 4
  br label %.thread85

.thread85:                                        ; preds = %21, %14, %25, %58, %.thread, %.loopexit87
  %107 = phi i32 [ %.pre, %.thread ], [ 0, %.loopexit87 ], [ 0, %58 ], [ 0, %25 ], [ 0, %14 ], [ 0, %21 ]
  ret i32 %107
}